; Function Attrs: nounwind uwtable
define noalias ptr @png_malloc_warn(ptr noalias noundef %0, i64 noundef %1) local_unnamed_addr #0 {
  %.not = icmp eq ptr %0, null
  br i1 %.not, label %10, label %3

3:                                                ; preds = %2
  %4 = getelementptr inbounds nuw i8, ptr %0, i64 1064
  %5 = load ptr, ptr %4, align 8, !tbaa !37, !alias.scope !56
  %.not9.i = icmp eq ptr %5, null
  br i1 %.not9.i, label %8, label %6

6:                                                ; preds = %3
  %7 = tail call ptr %5(ptr noundef nonnull %0, i64 noundef %1) #12
  br label %png_malloc_base.exit

8:                                                ; preds = %3
  %9 = tail call noalias ptr @malloc(i64 noundef %1) #13
  br label %png_malloc_base.exit

png_malloc_base.exit:                             ; preds = %6, %8
  %.0.i = phi ptr [ %7, %6 ], [ %9, %8 ]
  %.not9.not = icmp eq ptr %.0.i, null
  br i1 %.not9.not, label %.thread, label %10

.thread:                                          ; preds = %png_malloc_base.exit
  tail call void @png_warning(ptr noundef nonnull %0, ptr noundef nonnull @.str.2) #12
  br label %10

10:                                               ; preds = %2, %.thread, %png_malloc_base.exit
  %.1 = phi ptr [ %.0.i, %png_malloc_base.exit ], [ null, %.thread ], [ null, %2 ]
  ret ptr %.1
}